; Function Attrs: mustprogress noreturn uwtable
define hidden void @_ZN6Assimp11B3DImporter4FailERKNSt7__cxx1112basic_stringIcSt11char_traitsIcESaIcEEE(ptr nocapture nonnull readnone align 8 %this, ptr noundef nonnull align 8 dereferenceable(32) %str) local_unnamed_addr #6 align 2 personality ptr @__gxx_personality_v0 {
entry:
  %exception = tail call ptr @__cxa_allocate_exception(i64 16) #22
  invoke void @_ZN17DeadlyImportErrorC2IJRA40_KcRKNSt7__cxx1112basic_stringIcSt11char_traitsIcESaIcEEEEEEDpOT_(ptr noundef nonnull align 8 dereferenceable(16) %exception, ptr noundef nonnull align 1 dereferenceable(40) @.str.5, ptr noundef nonnull align 8 dereferenceable(32) %str)
          to label %invoke.cont unwind label %lpad

invoke.cont:                                      ; preds = %entry
  tail call void @__cxa_throw(ptr nonnull %exception, ptr nonnull @_ZTI17DeadlyImportError, ptr nonnull @_ZN17DeadlyImportErrorD2Ev) #24
  unreachable

lpad:                                             ; preds = %entry
  %0 = landingpad { ptr, i32 }
          cleanup
  tail call void @__cxa_free_exception(ptr %exception) #22
  resume { ptr, i32 } %0
}